target datalayout = "e-m:e-p270:32:32-p271:32:32-p272:64:64-i64:64-i128:128-f80:128-n8:16:32:64-S128"
target triple = "x86_64-pc-linux-gnu"

%struct.ossl_quic_frame_stream_st = type { i64, i64, i64, ptr, i8 }

@.str.5 = private unnamed_addr constant [33 x i8] c"../openssl/test/quic_wire_test.c\00", align 1
@.str.23 = private unnamed_addr constant [9 x i8] c"fail < 0\00", align 1
@.str.32 = private unnamed_addr constant [9 x i8] c"SIZE_MAX\00", align 1
@.str.54 = private unnamed_addr constant [9 x i8] c"f.offset\00", align 1
@.str.55 = private unnamed_addr constant [7 x i8] c"0x1234\00", align 1
@.str.56 = private unnamed_addr constant [6 x i8] c"f.len\00", align 1
@.str.57 = private unnamed_addr constant [7 x i8] c"f.data\00", align 1
@encode_case_8_data = internal constant [5 x i8] c"\DE\06\CBv]", align 1
@.str.65 = private unnamed_addr constant [47 x i8] c"ossl_quic_wire_decode_frame_stream(pkt, 0, &f)\00", align 1
@.str.66 = private unnamed_addr constant [19 x i8] c"encode_case_8_data\00", align 1
@.str.67 = private unnamed_addr constant [12 x i8] c"f.stream_id\00", align 1
@.str.68 = private unnamed_addr constant [2 x i8] c"0\00", align 1
@.str.69 = private unnamed_addr constant [19 x i8] c"f.has_explicit_len\00", align 1
@.str.70 = private unnamed_addr constant [9 x i8] c"f.is_fin\00", align 1

; Function Attrs: nounwind uwtable
define internal i32 @encode_case_8_dec(ptr noundef %0, i64 noundef %1) #0 {
  %3 = alloca i32, align 4
  %4 = alloca ptr, align 8
  %5 = alloca i64, align 8
  %6 = alloca %struct.ossl_quic_frame_stream_st, align 8
  %7 = alloca i32, align 4
  store ptr %0, ptr %4, align 8, !tbaa !40
  store i64 %1, ptr %5, align 8, !tbaa !19
  call void @llvm.lifetime.start.p0(i64 40, ptr %6) #5
  call void @llvm.memset.p0.i64(ptr align 8 %6, i8 0, i64 40, i1 false)
  %8 = load i64, ptr %5, align 8, !tbaa !19
  %9 = icmp sge i64 %8, 3
  br i1 %9, label %10, label %11

10:                                               ; preds = %2
  store i32 1, ptr %3, align 4
  store i32 1, ptr %7, align 4
  br label %68

11:                                               ; preds = %2
  %12 = load ptr, ptr %4, align 8, !tbaa !40
  %13 = call i32 @ossl_quic_wire_decode_frame_stream(ptr noundef %12, i32 noundef 0, ptr noundef %6)
  %14 = load i64, ptr %5, align 8, !tbaa !19
  %15 = icmp slt i64 %14, 0
  %16 = zext i1 %15 to i32
  %17 = call i32 @test_int_eq(ptr noundef @.str.5, i32 noundef 361, ptr noundef @.str.65, ptr noundef @.str.23, i32 noundef %13, i32 noundef %16)
  %18 = icmp ne i32 %17, 0
  br i1 %18, label %20, label %19

19:                                               ; preds = %11
  store i32 0, ptr %3, align 4
  store i32 1, ptr %7, align 4
  br label %68

20:                                               ; preds = %11
  %21 = load i64, ptr %5, align 8, !tbaa !19
  %22 = icmp sge i64 %21, 0
  br i1 %22, label %23, label %24

23:                                               ; preds = %20
  store i32 1, ptr %3, align 4
  store i32 1, ptr %7, align 4
  br label %68

24:                                               ; preds = %20
  %25 = getelementptr inbounds nuw %struct.ossl_quic_frame_stream_st, ptr %6, i32 0, i32 2
  %26 = load i64, ptr %25, align 8, !tbaa !58
  %27 = call i32 @test_uint64_t_le(ptr noundef @.str.5, i32 noundef 367, ptr noundef @.str.56, ptr noundef @.str.32, i64 noundef %26, i64 noundef -1)
  %28 = icmp ne i32 %27, 0
  br i1 %28, label %30, label %29

29:                                               ; preds = %24
  store i32 0, ptr %3, align 4
  store i32 1, ptr %7, align 4
  br label %68

30:                                               ; preds = %24
  %31 = getelementptr inbounds nuw %struct.ossl_quic_frame_stream_st, ptr %6, i32 0, i32 3
  %32 = load ptr, ptr %31, align 8, !tbaa !60
  %33 = getelementptr inbounds nuw %struct.ossl_quic_frame_stream_st, ptr %6, i32 0, i32 2
  %34 = load i64, ptr %33, align 8, !tbaa !58
  %35 = call i32 @test_mem_eq(ptr noundef @.str.5, i32 noundef 371, ptr noundef @.str.57, ptr noundef @.str.66, ptr noundef %32, i64 noundef %34, ptr noundef @encode_case_8_data, i64 noundef 5)
  %36 = icmp ne i32 %35, 0
  br i1 %36, label %38, label %37

37:                                               ; preds = %30
  store i32 0, ptr %3, align 4
  store i32 1, ptr %7, align 4
  br label %68

38:                                               ; preds = %30
  %39 = getelementptr inbounds nuw %struct.ossl_quic_frame_stream_st, ptr %6, i32 0, i32 0
  %40 = load i64, ptr %39, align 8, !tbaa !61
  %41 = call i32 @test_uint64_t_eq(ptr noundef @.str.5, i32 noundef 374, ptr noundef @.str.67, ptr noundef @.str.55, i64 noundef %40, i64 noundef 4660)
  %42 = icmp ne i32 %41, 0
  br i1 %42, label %44, label %43

43:                                               ; preds = %38
  store i32 0, ptr %3, align 4
  store i32 1, ptr %7, align 4
  br label %68

44:                                               ; preds = %38
  %45 = getelementptr inbounds nuw %struct.ossl_quic_frame_stream_st, ptr %6, i32 0, i32 1
  %46 = load i64, ptr %45, align 8, !tbaa !62
  %47 = call i32 @test_uint64_t_eq(ptr noundef @.str.5, i32 noundef 377, ptr noundef @.str.54, ptr noundef @.str.68, i64 noundef %46, i64 noundef 0)
  %48 = icmp ne i32 %47, 0
  br i1 %48, label %50, label %49

49:                                               ; preds = %44
  store i32 0, ptr %3, align 4
  store i32 1, ptr %7, align 4
  br label %68

50:                                               ; preds = %44
  %51 = getelementptr inbounds nuw %struct.ossl_quic_frame_stream_st, ptr %6, i32 0, i32 4
  %52 = load i8, ptr %51, align 8
  %53 = and i8 %52, 1
  %54 = zext i8 %53 to i32
  %55 = call i32 @test_int_eq(ptr noundef @.str.5, i32 noundef 380, ptr noundef @.str.69, ptr noundef @.str.68, i32 noundef %54, i32 noundef 0)
  %56 = icmp ne i32 %55, 0
  br i1 %56, label %58, label %57

57:                                               ; preds = %50
  store i32 0, ptr %3, align 4
  store i32 1, ptr %7, align 4
  br label %68

58:                                               ; preds = %50
  %59 = getelementptr inbounds nuw %struct.ossl_quic_frame_stream_st, ptr %6, i32 0, i32 4
  %60 = load i8, ptr %59, align 8
  %61 = lshr i8 %60, 1
  %62 = and i8 %61, 1
  %63 = zext i8 %62 to i32
  %64 = call i32 @test_int_eq(ptr noundef @.str.5, i32 noundef 383, ptr noundef @.str.70, ptr noundef @.str.68, i32 noundef %63, i32 noundef 0)
  %65 = icmp ne i32 %64, 0
  br i1 %65, label %67, label %66

66:                                               ; preds = %58
  store i32 0, ptr %3, align 4
  store i32 1, ptr %7, align 4
  br label %68

67:                                               ; preds = %58
  store i32 1, ptr %3, align 4
  store i32 1, ptr %7, align 4
  br label %68

68:                                               ; preds = %67, %66, %57, %49, %43, %37, %29, %23, %19, %10
  call void @llvm.lifetime.end.p0(i64 40, ptr %6) #5
  %69 = load i32, ptr %3, align 4
  ret i32 %69
}