; Function Attrs: nounwind uwtable
define internal range(i32 0, 2) i32 @encode_case_8_dec(ptr noundef %0, i64 noundef %1) #0 {
  %3 = alloca %struct.ossl_quic_frame_stream_st, align 8
  call void @llvm.lifetime.start.p0(i64 40, ptr nonnull %3) #4
  call void @llvm.memset.p0.i64(ptr noundef nonnull align 8 dereferenceable(40) %3, i8 0, i64 40, i1 false)
  %4 = icmp sgt i64 %1, 2
  br i1 %4, label %39, label %5

5:                                                ; preds = %2
  %6 = call i32 @ossl_quic_wire_decode_frame_stream(ptr noundef %0, i32 noundef 0, ptr noundef nonnull %3) #4
  %.lobit = lshr i64 %1, 63
  %7 = trunc nuw nsw i64 %.lobit to i32
  %8 = call i32 @test_int_eq(ptr noundef nonnull @.str.5, i32 noundef 361, ptr noundef nonnull @.str.65, ptr noundef nonnull @.str.23, i32 noundef %6, i32 noundef %7) #4
  %.not = icmp eq i32 %8, 0
  br i1 %.not, label %39, label %9

9:                                                ; preds = %5
  %10 = icmp sgt i64 %1, -1
  br i1 %10, label %39, label %11

11:                                               ; preds = %9
  %12 = getelementptr inbounds nuw i8, ptr %3, i64 16
  %13 = load i64, ptr %12, align 8, !tbaa !46
  %14 = call i32 @test_uint64_t_le(ptr noundef nonnull @.str.5, i32 noundef 367, ptr noundef nonnull @.str.56, ptr noundef nonnull @.str.32, i64 noundef %13, i64 noundef -1) #4
  %.not5 = icmp eq i32 %14, 0
  br i1 %.not5, label %39, label %15

15:                                               ; preds = %11
  %16 = getelementptr inbounds nuw i8, ptr %3, i64 24
  %17 = load ptr, ptr %16, align 8, !tbaa !48
  %18 = load i64, ptr %12, align 8, !tbaa !46
  %19 = call i32 @test_mem_eq(ptr noundef nonnull @.str.5, i32 noundef 371, ptr noundef nonnull @.str.57, ptr noundef nonnull @.str.66, ptr noundef %17, i64 noundef %18, ptr noundef nonnull @encode_case_8_data, i64 noundef 5) #4
  %.not6 = icmp eq i32 %19, 0
  br i1 %.not6, label %39, label %20

20:                                               ; preds = %15
  %21 = load i64, ptr %3, align 8, !tbaa !49
  %22 = call i32 @test_uint64_t_eq(ptr noundef nonnull @.str.5, i32 noundef 374, ptr noundef nonnull @.str.67, ptr noundef nonnull @.str.55, i64 noundef %21, i64 noundef 4660) #4
  %.not7 = icmp eq i32 %22, 0
  br i1 %.not7, label %39, label %23

23:                                               ; preds = %20
  %24 = getelementptr inbounds nuw i8, ptr %3, i64 8
  %25 = load i64, ptr %24, align 8, !tbaa !50
  %26 = call i32 @test_uint64_t_eq(ptr noundef nonnull @.str.5, i32 noundef 377, ptr noundef nonnull @.str.54, ptr noundef nonnull @.str.68, i64 noundef %25, i64 noundef 0) #4
  %.not8 = icmp eq i32 %26, 0
  br i1 %.not8, label %39, label %27

27:                                               ; preds = %23
  %28 = getelementptr inbounds nuw i8, ptr %3, i64 32
  %29 = load i8, ptr %28, align 8
  %30 = and i8 %29, 1
  %31 = zext nneg i8 %30 to i32
  %32 = call i32 @test_int_eq(ptr noundef nonnull @.str.5, i32 noundef 380, ptr noundef nonnull @.str.69, ptr noundef nonnull @.str.68, i32 noundef %31, i32 noundef 0) #4
  %.not9 = icmp eq i32 %32, 0
  br i1 %.not9, label %39, label %33

33:                                               ; preds = %27
  %34 = load i8, ptr %28, align 8
  %35 = lshr i8 %34, 1
  %36 = and i8 %35, 1
  %37 = zext nneg i8 %36 to i32
  %38 = call i32 @test_int_eq(ptr noundef nonnull @.str.5, i32 noundef 383, ptr noundef nonnull @.str.70, ptr noundef nonnull @.str.68, i32 noundef %37, i32 noundef 0) #4
  %.not10 = icmp ne i32 %38, 0
  %. = zext i1 %.not10 to i32
  br label %39

39:                                               ; preds = %33, %27, %23, %20, %15, %11, %9, %5, %2
  %.0 = phi i32 [ 1, %2 ], [ 0, %5 ], [ 1, %9 ], [ 0, %11 ], [ 0, %15 ], [ 0, %20 ], [ 0, %23 ], [ 0, %27 ], [ %., %33 ]
  call void @llvm.lifetime.end.p0(i64 40, ptr nonnull %3) #4
  ret i32 %.0
}